target datalayout = "e-m:e-p270:32:32-p271:32:32-p272:64:64-i64:64-i128:128-f80:128-n8:16:32:64-S128"
target triple = "x86_64-pc-linux-gnu"

%struct.RString = type { %struct.RBasic, i64, %union.anon }
%struct.RBasic = type { i64, i64 }
%union.anon = type { %struct.anon }
%struct.anon = type { ptr, %union.anon.0 }
%union.anon.0 = type { i64 }
%struct.anon.1 = type { [1 x i8] }

@eASN1Error = global i64 0, align 8
@.str.77 = private unnamed_addr constant [70 x i8] c"Type mismatch. Total bytes read: %ld Bytes available: %ld Offset: %ld\00", align 1

; Function Attrs: inlinehint nounwind sspstrong willreturn memory(read) uwtable
define internal i64 @RB_FL_TEST_RAW(i64 noundef %0, i64 noundef %1) #10 {
  %3 = alloca i64, align 8
  %4 = alloca i64, align 8
  store i64 %0, ptr %3, align 8, !tbaa !20
  store i64 %1, ptr %4, align 8, !tbaa !20
  %5 = load i64, ptr %3, align 8, !tbaa !20
  %6 = inttoptr i64 %5 to ptr
  %7 = getelementptr inbounds nuw %struct.RBasic, ptr %6, i32 0, i32 0
  %8 = load i64, ptr %7, align 8, !tbaa !56
  %9 = load i64, ptr %4, align 8, !tbaa !20
  %10 = and i64 %8, %9
  ret i64 %10
}

; Function Attrs: inlinehint nounwind sspstrong willreturn memory(read) uwtable
define internal zeroext i1 @RB_FL_ANY_RAW(i64 noundef %0, i64 noundef %1) #10 {
  %3 = alloca i64, align 8
  %4 = alloca i64, align 8
  store i64 %0, ptr %3, align 8, !tbaa !20
  store i64 %1, ptr %4, align 8, !tbaa !20
  %5 = load i64, ptr %3, align 8, !tbaa !20
  %6 = load i64, ptr %4, align 8, !tbaa !20
  %7 = call i64 @RB_FL_TEST_RAW(i64 noundef %5, i64 noundef %6) #20
  %8 = icmp ne i64 %7, 0
  ret i1 %8
}

; Function Attrs: inlinehint nounwind sspstrong willreturn memory(read, argmem: readwrite) uwtable
define internal void @rbimpl_rstring_getmem(ptr dead_on_unwind noalias writable sret(%struct.RString) align 8 %0, i64 noundef %1) #14 {
  %3 = alloca i64, align 8
  store i64 %1, ptr %3, align 8, !tbaa !20
  %4 = load i64, ptr %3, align 8, !tbaa !20
  %5 = call zeroext i1 @RB_FL_ANY_RAW(i64 noundef %4, i64 noundef 8192) #20
  br i1 %5, label %6, label %9

6:                                                ; preds = %2
  %7 = load i64, ptr %3, align 8, !tbaa !20
  %8 = inttoptr i64 %7 to ptr
  call void @llvm.memcpy.p0.p0.i64(ptr align 8 %0, ptr align 8 %8, i64 40, i1 false), !tbaa.struct !55
  br label %20

9:                                                ; preds = %2
  %10 = load i64, ptr %3, align 8, !tbaa !20
  %11 = call i64 @RSTRING_LEN(i64 noundef %10) #20
  %12 = getelementptr inbounds nuw %struct.RString, ptr %0, i32 0, i32 1
  store i64 %11, ptr %12, align 8, !tbaa !50
  %13 = load i64, ptr %3, align 8, !tbaa !20
  %14 = inttoptr i64 %13 to ptr
  %15 = getelementptr inbounds nuw %struct.RString, ptr %14, i32 0, i32 2
  %16 = getelementptr inbounds nuw %struct.anon.1, ptr %15, i32 0, i32 0
  %17 = getelementptr inbounds [1 x i8], ptr %16, i64 0, i64 0
  %18 = getelementptr inbounds nuw %struct.RString, ptr %0, i32 0, i32 2
  %19 = getelementptr inbounds nuw %struct.anon, ptr %18, i32 0, i32 0
  store ptr %17, ptr %19, align 8, !tbaa !39
  br label %20

20:                                               ; preds = %9, %6
  ret void
}

; Function Attrs: nounwind sspstrong uwtable
define internal void @int_ossl_decode_sanity_check(i64 noundef %0, i64 noundef %1, i64 noundef %2) #0 {
  %4 = alloca i64, align 8
  %5 = alloca i64, align 8
  %6 = alloca i64, align 8
  store i64 %0, ptr %4, align 8, !tbaa !20
  store i64 %1, ptr %5, align 8, !tbaa !20
  store i64 %2, ptr %6, align 8, !tbaa !20
  %7 = load i64, ptr %4, align 8, !tbaa !20
  %8 = icmp ne i64 %7, 0
  br i1 %8, label %9, label %22

9:                                                ; preds = %3
  %10 = load i64, ptr %5, align 8, !tbaa !20
  %11 = load i64, ptr %4, align 8, !tbaa !20
  %12 = icmp ne i64 %10, %11
  br i1 %12, label %17, label %13

13:                                               ; preds = %9
  %14 = load i64, ptr %6, align 8, !tbaa !20
  %15 = load i64, ptr %4, align 8, !tbaa !20
  %16 = icmp ne i64 %14, %15
  br i1 %16, label %17, label %22

17:                                               ; preds = %13, %9
  %18 = load i64, ptr @eASN1Error, align 8, !tbaa !20
  %19 = load i64, ptr %5, align 8, !tbaa !20
  %20 = load i64, ptr %4, align 8, !tbaa !20
  %21 = load i64, ptr %6, align 8, !tbaa !20
  call void (i64, ptr, ...) @ossl_raise(i64 noundef %18, ptr noundef @.str.77, i64 noundef %19, i64 noundef %20, i64 noundef %21) #17
  unreachable

22:                                               ; preds = %13, %3
  ret void
}

; Function Attrs: inlinehint nounwind sspstrong willreturn memory(read) uwtable
define internal i64 @RSTRING_LEN(i64 noundef %0) #10 {
  %2 = alloca i64, align 8
  store i64 %0, ptr %2, align 8, !tbaa !20
  %3 = load i64, ptr %2, align 8, !tbaa !20
  %4 = inttoptr i64 %3 to ptr
  %5 = getelementptr inbounds nuw %struct.RString, ptr %4, i32 0, i32 1
  %6 = load i64, ptr %5, align 8, !tbaa !50
  ret i64 %6
}

; Function Attrs: inlinehint nounwind sspstrong uwtable
define internal ptr @RSTRING_PTR(i64 noundef %0) #6 {
  %2 = alloca i64, align 8
  %3 = alloca ptr, align 8
  %4 = alloca %struct.RString, align 8
  store i64 %0, ptr %2, align 8, !tbaa !20
  call void @llvm.lifetime.start.p0(i64 8, ptr %3) #16
  %5 = load i64, ptr %2, align 8, !tbaa !20
  call void @rbimpl_rstring_getmem(ptr dead_on_unwind writable sret(%struct.RString) align 8 %4, i64 noundef %5) #22
  %6 = getelementptr inbounds nuw %struct.RString, ptr %4, i32 0, i32 2
  %7 = getelementptr inbounds nuw %struct.anon, ptr %6, i32 0, i32 0
  %8 = load ptr, ptr %7, align 8, !tbaa !39
  store ptr %8, ptr %3, align 8, !tbaa !29
  %9 = load ptr, ptr %3, align 8, !tbaa !29
  call void @llvm.lifetime.end.p0(i64 8, ptr %3) #16
  ret ptr %9
}

; Function Attrs: nounwind sspstrong uwtable
define internal i64 @ossl_asn1_decode_all(i64 noundef %0, i64 noundef %1) #0 {
  %3 = alloca i64, align 8
  %4 = alloca i64, align 8
  %5 = alloca i64, align 8
  %6 = alloca i64, align 8
  %7 = alloca ptr, align 8
  %8 = alloca i64, align 8
  %9 = alloca i64, align 8
  %10 = alloca i64, align 8
  %11 = alloca i64, align 8
  %12 = alloca i64, align 8
  %13 = alloca i64, align 8
  %14 = alloca ptr, align 8
  %15 = alloca ptr, align 8
  store i64 %0, ptr %3, align 8, !tbaa !20
  store i64 %1, ptr %4, align 8, !tbaa !20
  call void @llvm.lifetime.start.p0(i64 8, ptr %5) #16
  call void @llvm.lifetime.start.p0(i64 8, ptr %6) #16
  call void @llvm.lifetime.start.p0(i64 8, ptr %7) #16
  call void @llvm.lifetime.start.p0(i64 8, ptr %8) #16
  call void @llvm.lifetime.start.p0(i64 8, ptr %9) #16
  store i64 0, ptr %9, align 8, !tbaa !20
  call void @llvm.lifetime.start.p0(i64 8, ptr %10) #16
  store i64 0, ptr %10, align 8, !tbaa !20
  call void @llvm.lifetime.start.p0(i64 8, ptr %11) #16
  store i64 0, ptr %11, align 8, !tbaa !20
  call void @llvm.lifetime.start.p0(i64 8, ptr %12) #16
  %16 = load i64, ptr %4, align 8, !tbaa !20
  %17 = call i64 @ossl_to_der_if_possible(i64 noundef %16)
  store i64 %17, ptr %4, align 8, !tbaa !20
  %18 = call i64 @rb_string_value(ptr noundef %4)
  %19 = call i64 @rb_str_new_frozen(i64 noundef %18)
  store i64 %19, ptr %12, align 8, !tbaa !20
  %20 = load i64, ptr %12, align 8, !tbaa !20
  %21 = call ptr @RSTRING_PTR(i64 noundef %20)
  store ptr %21, ptr %7, align 8, !tbaa !29
  %22 = load i64, ptr %12, align 8, !tbaa !20
  %23 = call i64 @RSTRING_LEN(i64 noundef %22) #20
  store i64 %23, ptr %8, align 8, !tbaa !20
  %24 = load i64, ptr %8, align 8, !tbaa !20
  store i64 %24, ptr %9, align 8, !tbaa !20
  %25 = call i64 @rb_ary_new()
  store i64 %25, ptr %5, align 8, !tbaa !20
  br label %26

26:                                               ; preds = %29, %2
  %27 = load i64, ptr %9, align 8, !tbaa !20
  %28 = icmp sgt i64 %27, 0
  br i1 %28, label %29, label %41

29:                                               ; preds = %26
  call void @llvm.lifetime.start.p0(i64 8, ptr %13) #16
  store i64 0, ptr %13, align 8, !tbaa !20
  %30 = load i64, ptr %9, align 8, !tbaa !20
  %31 = call i64 @ossl_asn1_decode0(ptr noundef %7, i64 noundef %30, ptr noundef %11, i32 noundef 0, i32 noundef 0, ptr noundef %13)
  store i64 %31, ptr %6, align 8, !tbaa !20
  %32 = load i64, ptr %5, align 8, !tbaa !20
  %33 = load i64, ptr %6, align 8, !tbaa !20
  %34 = call i64 @rb_ary_push(i64 noundef %32, i64 noundef %33)
  %35 = load i64, ptr %13, align 8, !tbaa !20
  %36 = load i64, ptr %10, align 8, !tbaa !20
  %37 = add nsw i64 %36, %35
  store i64 %37, ptr %10, align 8, !tbaa !20
  %38 = load i64, ptr %13, align 8, !tbaa !20
  %39 = load i64, ptr %9, align 8, !tbaa !20
  %40 = sub nsw i64 %39, %38
  store i64 %40, ptr %9, align 8, !tbaa !20
  call void @llvm.lifetime.end.p0(i64 8, ptr %13) #16
  br label %26, !llvm.loop !43

41:                                               ; preds = %26
  call void @llvm.lifetime.start.p0(i64 8, ptr %14) #16
  store ptr %12, ptr %14, align 8, !tbaa !27
  call void asm sideeffect "", "*m,~{dirflag},~{fpsr},~{flags}"(ptr elementtype(ptr) %14) #16, !srcloc !44
  %42 = load ptr, ptr %14, align 8, !tbaa !27
  store ptr %42, ptr %15, align 8, !tbaa !27
  call void @llvm.lifetime.end.p0(i64 8, ptr %14) #16
  %43 = load ptr, ptr %15, align 8, !tbaa !27
  %44 = load volatile i64, ptr %43, align 8, !tbaa !20
  %45 = load i64, ptr %8, align 8, !tbaa !20
  %46 = load i64, ptr %10, align 8, !tbaa !20
  %47 = load i64, ptr %11, align 8, !tbaa !20
  call void @int_ossl_decode_sanity_check(i64 noundef %45, i64 noundef %46, i64 noundef %47)
  %48 = load i64, ptr %5, align 8, !tbaa !20
  call void @llvm.lifetime.end.p0(i64 8, ptr %12) #16
  call void @llvm.lifetime.end.p0(i64 8, ptr %11) #16
  call void @llvm.lifetime.end.p0(i64 8, ptr %10) #16
  call void @llvm.lifetime.end.p0(i64 8, ptr %9) #16
  call void @llvm.lifetime.end.p0(i64 8, ptr %8) #16
  call void @llvm.lifetime.end.p0(i64 8, ptr %7) #16
  call void @llvm.lifetime.end.p0(i64 8, ptr %6) #16
  call void @llvm.lifetime.end.p0(i64 8, ptr %5) #16
  ret i64 %48
}