; Function Attrs: nounwind sspstrong uwtable
define internal i64 @ossl_asn1_decode_all(i64 %0, i64 noundef %1) #0 {
  %3 = alloca i64, align 8
  %4 = alloca ptr, align 8
  %5 = alloca i64, align 8
  %6 = alloca i64, align 8
  %7 = alloca i64, align 8
  %8 = alloca ptr, align 8
  call void @llvm.lifetime.start.p0(i64 8, ptr nonnull %4) #9
  call void @llvm.lifetime.start.p0(i64 8, ptr nonnull %5) #9
  store i64 0, ptr %5, align 8, !tbaa !17
  call void @llvm.lifetime.start.p0(i64 8, ptr nonnull %6) #9
  %9 = tail call i64 @ossl_to_der_if_possible(i64 noundef %1) #9
  store i64 %9, ptr %3, align 8, !tbaa !17
  %10 = call i64 @rb_string_value(ptr noundef nonnull %3) #9
  %11 = call i64 @rb_str_new_frozen(i64 noundef %10) #9
  store i64 %11, ptr %6, align 8, !tbaa !17
  %12 = inttoptr i64 %11 to ptr
  %13 = load i64, ptr %12, align 8, !tbaa !32, !noalias !46
  %14 = and i64 %13, 8192
  %.not.i.i = icmp eq i64 %14, 0
  %15 = getelementptr inbounds nuw i8, ptr %12, i64 24
  br i1 %.not.i.i, label %RSTRING_PTR.exit, label %16

16:                                               ; preds = %2
  %.sroa.2.0.copyload.i = load ptr, ptr %15, align 8
  br label %RSTRING_PTR.exit

RSTRING_PTR.exit:                                 ; preds = %2, %16
  %.sroa.2.0.i = phi ptr [ %.sroa.2.0.copyload.i, %16 ], [ %15, %2 ]
  store ptr %.sroa.2.0.i, ptr %4, align 8, !tbaa !37
  %17 = getelementptr inbounds nuw i8, ptr %12, i64 16
  %18 = load i64, ptr %17, align 8, !tbaa !38
  %19 = call i64 @rb_ary_new() #9
  %20 = icmp sgt i64 %18, 0
  br i1 %20, label %.lr.ph, label %._crit_edge

.lr.ph:                                           ; preds = %RSTRING_PTR.exit, %.lr.ph
  %.012 = phi i64 [ %25, %.lr.ph ], [ %18, %RSTRING_PTR.exit ]
  %.01011 = phi i64 [ %24, %.lr.ph ], [ 0, %RSTRING_PTR.exit ]
  call void @llvm.lifetime.start.p0(i64 8, ptr nonnull %7) #9
  store i64 0, ptr %7, align 8, !tbaa !17
  %21 = call fastcc i64 @ossl_asn1_decode0(ptr noundef %4, i64 noundef %.012, ptr noundef %5, i32 noundef 0, i32 noundef 0, ptr noundef %7)
  %22 = call i64 @rb_ary_push(i64 noundef %19, i64 noundef %21) #9
  %23 = load i64, ptr %7, align 8, !tbaa !17
  %24 = add nsw i64 %23, %.01011
  %25 = sub nsw i64 %.012, %23
  call void @llvm.lifetime.end.p0(i64 8, ptr nonnull %7) #9
  %26 = icmp sgt i64 %25, 0
  br i1 %26, label %.lr.ph, label %._crit_edge.loopexit, !llvm.loop !49

._crit_edge.loopexit:                             ; preds = %.lr.ph
  %.pre = load i64, ptr %5, align 8, !tbaa !17
  br label %._crit_edge

._crit_edge:                                      ; preds = %._crit_edge.loopexit, %RSTRING_PTR.exit
  %27 = phi i64 [ 0, %RSTRING_PTR.exit ], [ %.pre, %._crit_edge.loopexit ]
  %.010.lcssa = phi i64 [ 0, %RSTRING_PTR.exit ], [ %24, %._crit_edge.loopexit ]
  call void @llvm.lifetime.start.p0(i64 8, ptr nonnull %8) #9
  store ptr %6, ptr %8, align 8, !tbaa !40
  call void asm sideeffect "", "*m,~{dirflag},~{fpsr},~{flags}"(ptr nonnull elementtype(ptr) %8) #9, !srcloc !50
  %28 = load ptr, ptr %8, align 8, !tbaa !40
  call void @llvm.lifetime.end.p0(i64 8, ptr nonnull %8) #9
  %29 = load volatile i64, ptr %28, align 8, !tbaa !17
  %.not.i = icmp eq i64 %18, 0
  br i1 %.not.i, label %int_ossl_decode_sanity_check.exit, label %30

30:                                               ; preds = %._crit_edge
  %.not8.i = icmp eq i64 %.010.lcssa, %18
  %.not9.i = icmp eq i64 %27, %18
  %or.cond.i = and i1 %.not8.i, %.not9.i
  br i1 %or.cond.i, label %int_ossl_decode_sanity_check.exit, label %31

31:                                               ; preds = %30
  %32 = load i64, ptr @eASN1Error, align 8, !tbaa !17
  call void (i64, ptr, ...) @ossl_raise(i64 noundef %32, ptr noundef nonnull @.str.77, i64 noundef %.010.lcssa, i64 noundef %18, i64 noundef %27) #10
  unreachable

int_ossl_decode_sanity_check.exit:                ; preds = %._crit_edge, %30
  call void @llvm.lifetime.end.p0(i64 8, ptr nonnull %6) #9
  call void @llvm.lifetime.end.p0(i64 8, ptr nonnull %5) #9
  call void @llvm.lifetime.end.p0(i64 8, ptr nonnull %4) #9
  ret i64 %19
}